target datalayout = "e-m:e-p270:32:32-p271:32:32-p272:64:64-i64:64-i128:128-f80:128-n8:16:32:64-S128"
target triple = "x86_64-pc-linux-gnu"

%struct.CFF_IndexRec_ = type { ptr, i64, i32, i32, i8, i64, i64, ptr, ptr }
%struct.FT_StreamRec_ = type { ptr, i64, i64, %union.FT_StreamDesc_, %union.FT_StreamDesc_, ptr, ptr, ptr, ptr, ptr }
%union.FT_StreamDesc_ = type { i64 }

; Function Attrs: nounwind uwtable
define internal void @cff_index_done(ptr noundef %0) #0 {
  %2 = alloca ptr, align 8
  %3 = alloca ptr, align 8
  %4 = alloca ptr, align 8
  store ptr %0, ptr %2, align 8
  %5 = load ptr, ptr %2, align 8
  %6 = getelementptr inbounds %struct.CFF_IndexRec_, ptr %5, i32 0, i32 0
  %7 = load ptr, ptr %6, align 8
  %8 = icmp ne ptr %7, null
  br i1 %8, label %9, label %34

9:                                                ; preds = %1
  %10 = load ptr, ptr %2, align 8
  %11 = getelementptr inbounds %struct.CFF_IndexRec_, ptr %10, i32 0, i32 0
  %12 = load ptr, ptr %11, align 8
  store ptr %12, ptr %3, align 8
  %13 = load ptr, ptr %3, align 8
  %14 = getelementptr inbounds %struct.FT_StreamRec_, ptr %13, i32 0, i32 7
  %15 = load ptr, ptr %14, align 8
  store ptr %15, ptr %4, align 8
  %16 = load ptr, ptr %2, align 8
  %17 = getelementptr inbounds %struct.CFF_IndexRec_, ptr %16, i32 0, i32 8
  %18 = load ptr, ptr %17, align 8
  %19 = icmp ne ptr %18, null
  br i1 %19, label %20, label %24

20:                                               ; preds = %9
  %21 = load ptr, ptr %3, align 8
  %22 = load ptr, ptr %2, align 8
  %23 = getelementptr inbounds %struct.CFF_IndexRec_, ptr %22, i32 0, i32 8
  call void @FT_Stream_ReleaseFrame(ptr noundef %21, ptr noundef %23)
  br label %24

24:                                               ; preds = %20, %9
  br label %25

25:                                               ; preds = %24
  %26 = load ptr, ptr %4, align 8
  %27 = load ptr, ptr %2, align 8
  %28 = getelementptr inbounds %struct.CFF_IndexRec_, ptr %27, i32 0, i32 7
  %29 = load ptr, ptr %28, align 8
  call void @ft_mem_free(ptr noundef %26, ptr noundef %29)
  %30 = load ptr, ptr %2, align 8
  %31 = getelementptr inbounds %struct.CFF_IndexRec_, ptr %30, i32 0, i32 7
  store ptr null, ptr %31, align 8
  br label %32

32:                                               ; preds = %25
  %33 = load ptr, ptr %2, align 8
  call void @llvm.memset.p0.i64(ptr align 8 %33, i8 0, i64 64, i1 false)
  br label %34

34:                                               ; preds = %32, %1
  ret void
}