; Function Attrs: nounwind uwtable
define internal fastcc void @cff_index_done(ptr noundef %0) unnamed_addr #4 {
  %2 = load ptr, ptr %0, align 8
  %.not = icmp eq ptr %2, null
  br i1 %.not, label %12, label %3

3:                                                ; preds = %1
  %4 = getelementptr inbounds i8, ptr %2, i64 56
  %5 = load ptr, ptr %4, align 8
  %6 = getelementptr inbounds i8, ptr %0, i64 56
  %7 = load ptr, ptr %6, align 8
  %.not10 = icmp eq ptr %7, null
  br i1 %.not10, label %9, label %8

8:                                                ; preds = %3
  tail call void @FT_Stream_ReleaseFrame(ptr noundef nonnull %2, ptr noundef nonnull %6) #20
  br label %9

9:                                                ; preds = %3, %8
  %10 = getelementptr inbounds i8, ptr %0, i64 48
  %11 = load ptr, ptr %10, align 8
  tail call void @ft_mem_free(ptr noundef %5, ptr noundef %11) #20
  tail call void @llvm.memset.p0.i64(ptr noundef nonnull align 8 dereferenceable(64) %0, i8 0, i64 64, i1 false)
  br label %12

12:                                               ; preds = %9, %1
  ret void
}